target datalayout = "e-m:e-p270:32:32-p271:32:32-p272:64:64-i64:64-i128:128-f80:128-n8:16:32:64-S128"
target triple = "x86_64-pc-linux-gnu"

@.str.14 = private unnamed_addr constant [29 x i8] c"../openssl/test/cmsapitest.c\00", align 1
@.str.15 = private unnamed_addr constant [28 x i8] c"Error parsing test options\0A\00", align 1
@.str.16 = private unnamed_addr constant [30 x i8] c"certin = test_get_argument(0)\00", align 1
@.str.17 = private unnamed_addr constant [33 x i8] c"privkeyin = test_get_argument(1)\00", align 1
@.str.18 = private unnamed_addr constant [29 x i8] c"derin = test_get_argument(2)\00", align 1
@derin = internal global ptr null, align 8
@.str.19 = private unnamed_addr constant [2 x i8] c"r\00", align 1
@.str.20 = private unnamed_addr constant [8 x i8] c"certbio\00", align 1
@.str.21 = private unnamed_addr constant [46 x i8] c"PEM_read_bio_X509(certbio, &cert, NULL, NULL)\00", align 1
@cert = internal global ptr null, align 8
@.str.22 = private unnamed_addr constant [11 x i8] c"privkeybio\00", align 1
@.str.23 = private unnamed_addr constant [58 x i8] c"PEM_read_bio_PrivateKey(privkeybio, &privkey, NULL, NULL)\00", align 1
@privkey = internal global ptr null, align 8
@.str.24 = private unnamed_addr constant [29 x i8] c"test_encrypt_decrypt_aes_cbc\00", align 1
@.str.25 = private unnamed_addr constant [33 x i8] c"test_encrypt_decrypt_aes_128_gcm\00", align 1
@.str.26 = private unnamed_addr constant [33 x i8] c"test_encrypt_decrypt_aes_192_gcm\00", align 1
@.str.27 = private unnamed_addr constant [33 x i8] c"test_encrypt_decrypt_aes_256_gcm\00", align 1
@.str.28 = private unnamed_addr constant [19 x i8] c"test_CMS_add1_cert\00", align 1
@.str.29 = private unnamed_addr constant [22 x i8] c"test_d2i_CMS_bio_NULL\00", align 1
@.str.30 = private unnamed_addr constant [20 x i8] c"test_d2i_CMS_decode\00", align 1

; Function Attrs: nounwind uwtable
define dso_local i32 @setup_tests() #0 {
  %1 = alloca i32, align 4
  %2 = alloca ptr, align 8
  %3 = alloca ptr, align 8
  %4 = alloca ptr, align 8
  %5 = alloca ptr, align 8
  %6 = alloca i32, align 4
  call void @llvm.lifetime.start.p0(i64 8, ptr %2) #5
  store ptr null, ptr %2, align 8, !tbaa !4
  call void @llvm.lifetime.start.p0(i64 8, ptr %3) #5
  store ptr null, ptr %3, align 8, !tbaa !4
  call void @llvm.lifetime.start.p0(i64 8, ptr %4) #5
  store ptr null, ptr %4, align 8, !tbaa !9
  call void @llvm.lifetime.start.p0(i64 8, ptr %5) #5
  store ptr null, ptr %5, align 8, !tbaa !9
  %7 = call i32 @test_skip_common_options()
  %8 = icmp ne i32 %7, 0
  br i1 %8, label %10, label %9

9:                                                ; preds = %0
  call void (ptr, i32, ptr, ...) @test_error(ptr noundef @.str.14, i32 noundef 396, ptr noundef @.str.15)
  store i32 0, ptr %1, align 4
  store i32 1, ptr %6, align 4
  br label %64

10:                                               ; preds = %0
  %11 = call ptr @test_get_argument(i64 noundef 0)
  store ptr %11, ptr %2, align 8, !tbaa !4
  %12 = call i32 @test_ptr(ptr noundef @.str.14, i32 noundef 400, ptr noundef @.str.16, ptr noundef %11)
  %13 = icmp ne i32 %12, 0
  br i1 %13, label %14, label %22

14:                                               ; preds = %10
  %15 = call ptr @test_get_argument(i64 noundef 1)
  store ptr %15, ptr %3, align 8, !tbaa !4
  %16 = call i32 @test_ptr(ptr noundef @.str.14, i32 noundef 401, ptr noundef @.str.17, ptr noundef %15)
  %17 = icmp ne i32 %16, 0
  br i1 %17, label %18, label %22

18:                                               ; preds = %14
  %19 = call ptr @test_get_argument(i64 noundef 2)
  store ptr %19, ptr @derin, align 8, !tbaa !4
  %20 = call i32 @test_ptr(ptr noundef @.str.14, i32 noundef 402, ptr noundef @.str.18, ptr noundef %19)
  %21 = icmp ne i32 %20, 0
  br i1 %21, label %23, label %22

22:                                               ; preds = %18, %14, %10
  store i32 0, ptr %1, align 4
  store i32 1, ptr %6, align 4
  br label %64

23:                                               ; preds = %18
  %24 = load ptr, ptr %2, align 8, !tbaa !4
  %25 = call ptr @BIO_new_file(ptr noundef %24, ptr noundef @.str.19)
  store ptr %25, ptr %4, align 8, !tbaa !9
  %26 = load ptr, ptr %4, align 8, !tbaa !9
  %27 = call i32 @test_ptr(ptr noundef @.str.14, i32 noundef 406, ptr noundef @.str.20, ptr noundef %26)
  %28 = icmp ne i32 %27, 0
  br i1 %28, label %30, label %29

29:                                               ; preds = %23
  store i32 0, ptr %1, align 4
  store i32 1, ptr %6, align 4
  br label %64

30:                                               ; preds = %23
  %31 = load ptr, ptr %4, align 8, !tbaa !9
  %32 = call ptr @PEM_read_bio_X509(ptr noundef %31, ptr noundef @cert, ptr noundef null, ptr noundef null)
  %33 = icmp ne ptr %32, null
  %34 = zext i1 %33 to i32
  %35 = call i32 @test_true(ptr noundef @.str.14, i32 noundef 408, ptr noundef @.str.21, i32 noundef %34)
  %36 = icmp ne i32 %35, 0
  br i1 %36, label %40, label %37

37:                                               ; preds = %30
  %38 = load ptr, ptr %4, align 8, !tbaa !9
  %39 = call i32 @BIO_free(ptr noundef %38)
  store i32 0, ptr %1, align 4
  store i32 1, ptr %6, align 4
  br label %64

40:                                               ; preds = %30
  %41 = load ptr, ptr %4, align 8, !tbaa !9
  %42 = call i32 @BIO_free(ptr noundef %41)
  %43 = load ptr, ptr %3, align 8, !tbaa !4
  %44 = call ptr @BIO_new_file(ptr noundef %43, ptr noundef @.str.19)
  store ptr %44, ptr %5, align 8, !tbaa !9
  %45 = load ptr, ptr %5, align 8, !tbaa !9
  %46 = call i32 @test_ptr(ptr noundef @.str.14, i32 noundef 415, ptr noundef @.str.22, ptr noundef %45)
  %47 = icmp ne i32 %46, 0
  br i1 %47, label %50, label %48

48:                                               ; preds = %40
  %49 = load ptr, ptr @cert, align 8, !tbaa !11
  call void @X509_free(ptr noundef %49)
  store ptr null, ptr @cert, align 8, !tbaa !11
  store i32 0, ptr %1, align 4
  store i32 1, ptr %6, align 4
  br label %64

50:                                               ; preds = %40
  %51 = load ptr, ptr %5, align 8, !tbaa !9
  %52 = call ptr @PEM_read_bio_PrivateKey(ptr noundef %51, ptr noundef @privkey, ptr noundef null, ptr noundef null)
  %53 = icmp ne ptr %52, null
  %54 = zext i1 %53 to i32
  %55 = call i32 @test_true(ptr noundef @.str.14, i32 noundef 420, ptr noundef @.str.23, i32 noundef %54)
  %56 = icmp ne i32 %55, 0
  br i1 %56, label %61, label %57

57:                                               ; preds = %50
  %58 = load ptr, ptr %5, align 8, !tbaa !9
  %59 = call i32 @BIO_free(ptr noundef %58)
  %60 = load ptr, ptr @cert, align 8, !tbaa !11
  call void @X509_free(ptr noundef %60)
  store ptr null, ptr @cert, align 8, !tbaa !11
  store i32 0, ptr %1, align 4
  store i32 1, ptr %6, align 4
  br label %64

61:                                               ; preds = %50
  %62 = load ptr, ptr %5, align 8, !tbaa !9
  %63 = call i32 @BIO_free(ptr noundef %62)
  call void @add_test(ptr noundef @.str.24, ptr noundef @test_encrypt_decrypt_aes_cbc)
  call void @add_test(ptr noundef @.str.25, ptr noundef @test_encrypt_decrypt_aes_128_gcm)
  call void @add_test(ptr noundef @.str.26, ptr noundef @test_encrypt_decrypt_aes_192_gcm)
  call void @add_test(ptr noundef @.str.27, ptr noundef @test_encrypt_decrypt_aes_256_gcm)
  call void @add_test(ptr noundef @.str.28, ptr noundef @test_CMS_add1_cert)
  call void @add_test(ptr noundef @.str.29, ptr noundef @test_d2i_CMS_bio_NULL)
  call void @add_all_tests(ptr noundef @.str.30, ptr noundef @test_d2i_CMS_decode, i32 noundef 2, i32 noundef 1)
  store i32 1, ptr %1, align 4
  store i32 1, ptr %6, align 4
  br label %64

64:                                               ; preds = %61, %57, %48, %37, %29, %22, %9
  call void @llvm.lifetime.end.p0(i64 8, ptr %5) #5
  call void @llvm.lifetime.end.p0(i64 8, ptr %4) #5
  call void @llvm.lifetime.end.p0(i64 8, ptr %3) #5
  call void @llvm.lifetime.end.p0(i64 8, ptr %2) #5
  %65 = load i32, ptr %1, align 4
  ret i32 %65
}