; Function Attrs: nounwind uwtable
define dso_local range(i32 0, 2) i32 @setup_tests() local_unnamed_addr #1 {
  %1 = tail call i32 @test_skip_common_options() #5
  %.not = icmp eq i32 %1, 0
  br i1 %.not, label %2, label %3

2:                                                ; preds = %0
  tail call void (ptr, i32, ptr, ...) @test_error(ptr noundef nonnull @.str.14, i32 noundef 396, ptr noundef nonnull @.str.15) #5
  br label %35

3:                                                ; preds = %0
  %4 = tail call ptr @test_get_argument(i64 noundef 0) #5
  %5 = tail call i32 @test_ptr(ptr noundef nonnull @.str.14, i32 noundef 400, ptr noundef nonnull @.str.16, ptr noundef %4) #5
  %.not10 = icmp eq i32 %5, 0
  br i1 %.not10, label %35, label %6

6:                                                ; preds = %3
  %7 = tail call ptr @test_get_argument(i64 noundef 1) #5
  %8 = tail call i32 @test_ptr(ptr noundef nonnull @.str.14, i32 noundef 401, ptr noundef nonnull @.str.17, ptr noundef %7) #5
  %.not11 = icmp eq i32 %8, 0
  br i1 %.not11, label %35, label %9

9:                                                ; preds = %6
  %10 = tail call ptr @test_get_argument(i64 noundef 2) #5
  store ptr %10, ptr @derin, align 8, !tbaa !4
  %11 = tail call i32 @test_ptr(ptr noundef nonnull @.str.14, i32 noundef 402, ptr noundef nonnull @.str.18, ptr noundef %10) #5
  %.not12 = icmp eq i32 %11, 0
  br i1 %.not12, label %35, label %12

12:                                               ; preds = %9
  %13 = tail call ptr @BIO_new_file(ptr noundef %4, ptr noundef nonnull @.str.19) #5
  %14 = tail call i32 @test_ptr(ptr noundef nonnull @.str.14, i32 noundef 406, ptr noundef nonnull @.str.20, ptr noundef %13) #5
  %.not13 = icmp eq i32 %14, 0
  br i1 %.not13, label %35, label %15

15:                                               ; preds = %12
  %16 = tail call ptr @PEM_read_bio_X509(ptr noundef %13, ptr noundef nonnull @cert, ptr noundef null, ptr noundef null) #5
  %17 = icmp ne ptr %16, null
  %18 = zext i1 %17 to i32
  %19 = tail call i32 @test_true(ptr noundef nonnull @.str.14, i32 noundef 408, ptr noundef nonnull @.str.21, i32 noundef %18) #5
  %.not14 = icmp eq i32 %19, 0
  %20 = tail call i32 @BIO_free(ptr noundef %13) #5
  br i1 %.not14, label %35, label %21

21:                                               ; preds = %15
  %22 = tail call ptr @BIO_new_file(ptr noundef %7, ptr noundef nonnull @.str.19) #5
  %23 = tail call i32 @test_ptr(ptr noundef nonnull @.str.14, i32 noundef 415, ptr noundef nonnull @.str.22, ptr noundef %22) #5
  %.not15 = icmp eq i32 %23, 0
  br i1 %.not15, label %24, label %26

24:                                               ; preds = %21
  %25 = load ptr, ptr @cert, align 8, !tbaa !9
  tail call void @X509_free(ptr noundef %25) #5
  store ptr null, ptr @cert, align 8, !tbaa !9
  br label %35

26:                                               ; preds = %21
  %27 = tail call ptr @PEM_read_bio_PrivateKey(ptr noundef %22, ptr noundef nonnull @privkey, ptr noundef null, ptr noundef null) #5
  %28 = icmp ne ptr %27, null
  %29 = zext i1 %28 to i32
  %30 = tail call i32 @test_true(ptr noundef nonnull @.str.14, i32 noundef 420, ptr noundef nonnull @.str.23, i32 noundef %29) #5
  %.not16 = icmp eq i32 %30, 0
  %31 = tail call i32 @BIO_free(ptr noundef %22) #5
  br i1 %.not16, label %32, label %34

32:                                               ; preds = %26
  %33 = load ptr, ptr @cert, align 8, !tbaa !9
  tail call void @X509_free(ptr noundef %33) #5
  store ptr null, ptr @cert, align 8, !tbaa !9
  br label %35

34:                                               ; preds = %26
  tail call void @add_test(ptr noundef nonnull @.str.24, ptr noundef nonnull @test_encrypt_decrypt_aes_cbc) #5
  tail call void @add_test(ptr noundef nonnull @.str.25, ptr noundef nonnull @test_encrypt_decrypt_aes_128_gcm) #5
  tail call void @add_test(ptr noundef nonnull @.str.26, ptr noundef nonnull @test_encrypt_decrypt_aes_192_gcm) #5
  tail call void @add_test(ptr noundef nonnull @.str.27, ptr noundef nonnull @test_encrypt_decrypt_aes_256_gcm) #5
  tail call void @add_test(ptr noundef nonnull @.str.28, ptr noundef nonnull @test_CMS_add1_cert) #5
  tail call void @add_test(ptr noundef nonnull @.str.29, ptr noundef nonnull @test_d2i_CMS_bio_NULL) #5
  tail call void @add_all_tests(ptr noundef nonnull @.str.30, ptr noundef nonnull @test_d2i_CMS_decode, i32 noundef 2, i32 noundef 1) #5
  br label %35

35:                                               ; preds = %15, %12, %3, %6, %9, %34, %32, %24, %2
  %.0 = phi i32 [ 1, %34 ], [ 0, %32 ], [ 0, %24 ], [ 0, %2 ], [ 0, %9 ], [ 0, %6 ], [ 0, %3 ], [ 0, %12 ], [ 0, %15 ]
  ret i32 %.0
}